ARM GAS  /tmp/ccBRrUv8.s 			page 1


   1              		.cpu cortex-m4
   2              		.arch armv7e-m
   3              		.fpu fpv4-sp-d16
   4              		.eabi_attribute 27, 1
   5              		.eabi_attribute 28, 1
   6              		.eabi_attribute 20, 1
   7              		.eabi_attribute 21, 1
   8              		.eabi_attribute 23, 3
   9              		.eabi_attribute 24, 1
  10              		.eabi_attribute 25, 1
  11              		.eabi_attribute 26, 1
  12              		.eabi_attribute 30, 1
  13              		.eabi_attribute 34, 1
  14              		.eabi_attribute 18, 4
  15              		.file	"rms_main.c"
  16              		.text
  17              	.Ltext0:
  18              		.cfi_sections	.debug_frame
  19              		.section	.text.main,"ax",%progbits
  20              		.align	1
  21              		.global	main
  22              		.syntax unified
  23              		.thumb
  24              		.thumb_func
  26              	main:
  27              	.LFB134:
  28              		.file 1 "../rms_self/src/rms_main.c"
   1:../rms_self/src/rms_main.c **** #include "main.h"
   2:../rms_self/src/rms_main.c **** #include "gpio.h"
   3:../rms_self/src/rms_main.c **** #include "cmsis_os.h"
   4:../rms_self/src/rms_main.c **** #include "dma.h"
   5:../rms_self/src/rms_main.c **** #include "usart.h"
   6:../rms_self/src/rms_main.c **** #include "tim.h"
   7:../rms_self/src/rms_main.c **** 
   8:../rms_self/src/rms_main.c **** /***************************** Prototypes ****************************/
   9:../rms_self/src/rms_main.c **** extern void SystemClock_Config(void);
  10:../rms_self/src/rms_main.c **** extern void MX_FREERTOS_Init(void);
  11:../rms_self/src/rms_main.c **** 
  12:../rms_self/src/rms_main.c **** int main(void)
  13:../rms_self/src/rms_main.c **** {
  29              		.loc 1 13 1 view -0
  30              		.cfi_startproc
  31              		@ args = 0, pretend = 0, frame = 0
  32              		@ frame_needed = 0, uses_anonymous_args = 0
  33 0000 10B5     		push	{r4, lr}
  34              	.LCFI0:
  35              		.cfi_def_cfa_offset 8
  36              		.cfi_offset 4, -8
  37              		.cfi_offset 14, -4
  14:../rms_self/src/rms_main.c ****     // Reset of all peripherals, Initializes the Flash interface and the Systick
  15:../rms_self/src/rms_main.c ****     HAL_Init();
  38              		.loc 1 15 5 view .LVU1
  39 0002 FFF7FEFF 		bl	HAL_Init
  40              	.LVL0:
  16:../rms_self/src/rms_main.c **** 
  17:../rms_self/src/rms_main.c ****     // Configure the system clock
  18:../rms_self/src/rms_main.c ****     SystemClock_Config();
ARM GAS  /tmp/ccBRrUv8.s 			page 2


  41              		.loc 1 18 5 view .LVU2
  42 0006 FFF7FEFF 		bl	SystemClock_Config
  43              	.LVL1:
  19:../rms_self/src/rms_main.c **** 
  20:../rms_self/src/rms_main.c ****     // Initialize all configured peripherals
  21:../rms_self/src/rms_main.c ****     MX_GPIO_Init();
  44              		.loc 1 21 5 view .LVU3
  45 000a FFF7FEFF 		bl	MX_GPIO_Init
  46              	.LVL2:
  22:../rms_self/src/rms_main.c ****     MX_DMA_Init();
  47              		.loc 1 22 5 view .LVU4
  48 000e FFF7FEFF 		bl	MX_DMA_Init
  49              	.LVL3:
  23:../rms_self/src/rms_main.c ****     MX_USART3_UART_Init();
  50              		.loc 1 23 5 view .LVU5
  51 0012 FFF7FEFF 		bl	MX_USART3_UART_Init
  52              	.LVL4:
  24:../rms_self/src/rms_main.c ****     MX_TIM3_Init();
  53              		.loc 1 24 5 view .LVU6
  54 0016 FFF7FEFF 		bl	MX_TIM3_Init
  55              	.LVL5:
  25:../rms_self/src/rms_main.c ****     MX_TIM4_Init();
  56              		.loc 1 25 5 view .LVU7
  57 001a FFF7FEFF 		bl	MX_TIM4_Init
  58              	.LVL6:
  26:../rms_self/src/rms_main.c ****     MX_TIM8_Init();
  59              		.loc 1 26 5 view .LVU8
  60 001e FFF7FEFF 		bl	MX_TIM8_Init
  61              	.LVL7:
  27:../rms_self/src/rms_main.c **** 
  28:../rms_self/src/rms_main.c ****     // Start peripherals 
  29:../rms_self/src/rms_main.c ****     HAL_TIM_Encoder_Start(&htim3, TIM_CHANNEL_ALL);
  62              		.loc 1 29 5 view .LVU9
  63 0022 3C21     		movs	r1, #60
  64 0024 0B48     		ldr	r0, .L3
  65 0026 FFF7FEFF 		bl	HAL_TIM_Encoder_Start
  66              	.LVL8:
  30:../rms_self/src/rms_main.c ****     HAL_TIM_IC_Start_IT(&htim4, TIM_CHANNEL_1);
  67              		.loc 1 30 5 view .LVU10
  68 002a 0021     		movs	r1, #0
  69 002c 0A48     		ldr	r0, .L3+4
  70 002e FFF7FEFF 		bl	HAL_TIM_IC_Start_IT
  71              	.LVL9:
  31:../rms_self/src/rms_main.c ****     HAL_TIM_PWM_Start(&htim8, TIM_CHANNEL_1);
  72              		.loc 1 31 5 view .LVU11
  73 0032 0A4C     		ldr	r4, .L3+8
  74 0034 0021     		movs	r1, #0
  75 0036 2046     		mov	r0, r4
  76 0038 FFF7FEFF 		bl	HAL_TIM_PWM_Start
  77              	.LVL10:
  32:../rms_self/src/rms_main.c ****     HAL_TIM_PWM_Start(&htim8, TIM_CHANNEL_2);
  78              		.loc 1 32 5 view .LVU12
  79 003c 0421     		movs	r1, #4
  80 003e 2046     		mov	r0, r4
  81 0040 FFF7FEFF 		bl	HAL_TIM_PWM_Start
  82              	.LVL11:
  33:../rms_self/src/rms_main.c ****     
ARM GAS  /tmp/ccBRrUv8.s 			page 3


  34:../rms_self/src/rms_main.c ****     // Call init function for freertos objects (in freertos.c)
  35:../rms_self/src/rms_main.c ****     osKernelInitialize();  
  83              		.loc 1 35 5 view .LVU13
  84 0044 FFF7FEFF 		bl	osKernelInitialize
  85              	.LVL12:
  36:../rms_self/src/rms_main.c ****     MX_FREERTOS_Init();
  86              		.loc 1 36 5 view .LVU14
  87 0048 FFF7FEFF 		bl	MX_FREERTOS_Init
  88              	.LVL13:
  37:../rms_self/src/rms_main.c **** 
  38:../rms_self/src/rms_main.c ****     //Start scheduler
  39:../rms_self/src/rms_main.c ****     osKernelStart();    
  89              		.loc 1 39 5 view .LVU15
  90 004c FFF7FEFF 		bl	osKernelStart
  91              	.LVL14:
  40:../rms_self/src/rms_main.c **** }...
  92              		.loc 1 40 1 is_stmt 0 view .LVU16
  93 0050 0020     		movs	r0, #0
  94 0052 10BD     		pop	{r4, pc}
  95              	.L4:
  96              		.align	2
  97              	.L3:
  98 0054 00000000 		.word	htim3
  99 0058 00000000 		.word	htim4
 100 005c 00000000 		.word	htim8
 101              		.cfi_endproc
 102              	.LFE134:
 104              		.text
 105              	.Letext0:
 106              		.file 2 "/opt/arm-gcc/arm-none-eabi/include/machine/_default_types.h"
 107              		.file 3 "/opt/arm-gcc/arm-none-eabi/include/sys/_stdint.h"
 108              		.file 4 "Drivers/CMSIS/Device/ST/STM32F4xx/Include/stm32f429xx.h"
 109              		.file 5 "Drivers/STM32F4xx_HAL_Driver/Inc/stm32f4xx_hal_def.h"
 110              		.file 6 "Drivers/STM32F4xx_HAL_Driver/Inc/stm32f4xx_hal_dma.h"
 111              		.file 7 "Drivers/STM32F4xx_HAL_Driver/Inc/stm32f4xx_hal_tim.h"
 112              		.file 8 "Core/Inc/tim.h"
 113              		.file 9 "Drivers/STM32F4xx_HAL_Driver/Inc/stm32f4xx_hal.h"
 114              		.file 10 "Core/Inc/gpio.h"
 115              		.file 11 "Core/Inc/dma.h"
 116              		.file 12 "Core/Inc/usart.h"
 117              		.file 13 "Middlewares/Third_Party/FreeRTOS/Source/CMSIS_RTOS_V2/cmsis_os2.h"
ARM GAS  /tmp/ccBRrUv8.s 			page 4


DEFINED SYMBOLS
                            *ABS*:0000000000000000 rms_main.c
     /tmp/ccBRrUv8.s:20     .text.main:0000000000000000 $t
     /tmp/ccBRrUv8.s:26     .text.main:0000000000000000 main
     /tmp/ccBRrUv8.s:98     .text.main:0000000000000054 $d

UNDEFINED SYMBOLS
HAL_Init
SystemClock_Config
MX_GPIO_Init
MX_DMA_Init
MX_USART3_UART_Init
MX_TIM3_Init
MX_TIM4_Init
MX_TIM8_Init
HAL_TIM_Encoder_Start
HAL_TIM_IC_Start_IT
HAL_TIM_PWM_Start
osKernelInitialize
MX_FREERTOS_Init
osKernelStart
htim3
htim4
htim8
