ARM GAS  /tmp/ccsl9ErK.s 			page 1


   1              		.cpu cortex-m4
   2              		.arch armv7e-m
   3              		.fpu fpv4-sp-d16
   4              		.eabi_attribute 27, 1
   5              		.eabi_attribute 28, 1
   6              		.eabi_attribute 20, 1
   7              		.eabi_attribute 21, 1
   8              		.eabi_attribute 23, 3
   9              		.eabi_attribute 24, 1
  10              		.eabi_attribute 25, 1
  11              		.eabi_attribute 26, 1
  12              		.eabi_attribute 30, 1
  13              		.eabi_attribute 34, 1
  14              		.eabi_attribute 18, 4
  15              		.file	"rms_freertos.c"
  16              		.text
  17              	.Ltext0:
  18              		.cfi_sections	.debug_frame
  19              		.section	.rodata.start_uros_task.str1.4,"aMS",%progbits,1
  20              		.align	2
  21              	.LC0:
  22 0000 4572726F 		.ascii	"Error on default allocators (line %d)\012\000"
  22      72206F6E 
  22      20646566 
  22      61756C74 
  22      20616C6C 
  23 0027 00       		.align	2
  24              	.LC1:
  25 0028 00       		.ascii	"\000"
  26 0029 000000   		.align	2
  27              	.LC2:
  28 002c 726D735F 		.ascii	"rms_node\000"
  28      6E6F6465 
  28      00
  29 0035 000000   		.align	2
  30              	.LC3:
  31 0038 6E756D62 		.ascii	"numbers\000"
  31      65727300 
  32              		.align	2
  33              	.LC4:
  34 0040 4572726F 		.ascii	"Error publishing (line %d)\012\000"
  34      72207075 
  34      626C6973 
  34      68696E67 
  34      20286C69 
  35              		.section	.text.start_uros_task,"ax",%progbits
  36              		.align	1
  37              		.global	start_uros_task
  38              		.syntax unified
  39              		.thumb
  40              		.thumb_func
  42              	start_uros_task:
  43              	.LVL0:
  44              	.LFB138:
  45              		.file 1 "../RMS-source/src/rms_freertos.c"
   1:../RMS-source/src/rms_freertos.c **** #include "FreeRTOS.h"
   2:../RMS-source/src/rms_freertos.c **** #include "cmsis_os.h"
ARM GAS  /tmp/ccsl9ErK.s 			page 2


   3:../RMS-source/src/rms_freertos.c **** #include "main.h"
   4:../RMS-source/src/rms_freertos.c **** #include "usart.h"
   5:../RMS-source/src/rms_freertos.c **** #include "tim.h"
   6:../RMS-source/src/rms_freertos.c **** #include "dh052_internal.h"
   7:../RMS-source/src/rms_freertos.c **** #include <rcl/rcl.h>
   8:../RMS-source/src/rms_freertos.c **** #include <rcl/error_handling.h>
   9:../RMS-source/src/rms_freertos.c **** #include <rclc/rclc.h>
  10:../RMS-source/src/rms_freertos.c **** #include <rclc/executor.h>
  11:../RMS-source/src/rms_freertos.c **** #include <uxr/client/transport.h>
  12:../RMS-source/src/rms_freertos.c **** #include <rmw_microxrcedds_c/config.h>
  13:../RMS-source/src/rms_freertos.c **** #include <rmw_microros/rmw_microros.h>
  14:../RMS-source/src/rms_freertos.c **** #include <std_msgs/msg/int32.h>
  15:../RMS-source/src/rms_freertos.c **** #include <stdbool.h>
  16:../RMS-source/src/rms_freertos.c **** #include <unistd.h>
  17:../RMS-source/src/rms_freertos.c **** #include <stdio.h>
  18:../RMS-source/src/rms_freertos.c **** 
  19:../RMS-source/src/rms_freertos.c **** /******************************* Aliases **************************************/
  20:../RMS-source/src/rms_freertos.c **** #define ENC_VAL (TIM3->CNT>>2) // shifting the actual val by 2bits
  21:../RMS-source/src/rms_freertos.c **** #define BUF_SIZE 256
  22:../RMS-source/src/rms_freertos.c **** 
  23:../RMS-source/src/rms_freertos.c **** /****************************** Global Variables ******************************/
  24:../RMS-source/src/rms_freertos.c **** int32_t encPrev = 0;
  25:../RMS-source/src/rms_freertos.c **** int32_t val = 0;
  26:../RMS-source/src/rms_freertos.c **** 
  27:../RMS-source/src/rms_freertos.c **** /********************************* Prototypes ********************************/
  28:../RMS-source/src/rms_freertos.c **** extern bool cubemx_transport_open(struct uxrCustomTransport * transport);
  29:../RMS-source/src/rms_freertos.c **** extern bool cubemx_transport_close(struct uxrCustomTransport * transport);
  30:../RMS-source/src/rms_freertos.c **** extern size_t cubemx_transport_write(struct uxrCustomTransport* transport, const uint8_t * buf, siz
  31:../RMS-source/src/rms_freertos.c **** extern size_t cubemx_transport_read(struct uxrCustomTransport* transport, uint8_t* buf, size_t len,
  32:../RMS-source/src/rms_freertos.c **** extern void microros_deallocate(void * pointer, void * state);
  33:../RMS-source/src/rms_freertos.c **** extern void * microros_allocate(size_t size, void * state);
  34:../RMS-source/src/rms_freertos.c **** extern void * microros_reallocate(void * pointer, size_t size, void * state);
  35:../RMS-source/src/rms_freertos.c **** extern void * microros_zero_allocate(size_t number_of_elements, size_t size_of_element, void * stat
  36:../RMS-source/src/rms_freertos.c **** 
  37:../RMS-source/src/rms_freertos.c **** 
  38:../RMS-source/src/rms_freertos.c **** /* This task creates and handles the execution of node 'RMS' */ 
  39:../RMS-source/src/rms_freertos.c **** void start_uros_task(void *argument)
  40:../RMS-source/src/rms_freertos.c **** {
  46              		.loc 1 40 1 view -0
  47              		.cfi_startproc
  48              		@ args = 0, pretend = 0, frame = 136
  49              		@ frame_needed = 0, uses_anonymous_args = 0
  50              		.loc 1 40 1 is_stmt 0 view .LVU1
  51 0000 00B5     		push	{lr}
  52              	.LCFI0:
  53              		.cfi_def_cfa_offset 4
  54              		.cfi_offset 14, -4
  55 0002 A5B0     		sub	sp, sp, #148
  56              	.LCFI1:
  57              		.cfi_def_cfa_offset 152
  41:../RMS-source/src/rms_freertos.c ****     rmw_uros_set_custom_transport(true, (void *) &huart3, cubemx_transport_open, cubemx_transport_c
  58              		.loc 1 41 5 is_stmt 1 view .LVU2
  59 0004 2A4B     		ldr	r3, .L8
  60 0006 0193     		str	r3, [sp, #4]
  61 0008 2A4B     		ldr	r3, .L8+4
  62 000a 0093     		str	r3, [sp]
  63 000c 2A4B     		ldr	r3, .L8+8
ARM GAS  /tmp/ccsl9ErK.s 			page 3


  64 000e 2B4A     		ldr	r2, .L8+12
  65 0010 2B49     		ldr	r1, .L8+16
  66 0012 0120     		movs	r0, #1
  67              	.LVL1:
  68              		.loc 1 41 5 is_stmt 0 view .LVU3
  69 0014 FFF7FEFF 		bl	rmw_uros_set_custom_transport
  70              	.LVL2:
  42:../RMS-source/src/rms_freertos.c **** 
  43:../RMS-source/src/rms_freertos.c ****     rcl_allocator_t freeRTOS_allocator = rcutils_get_zero_initialized_allocator();
  71              		.loc 1 43 5 is_stmt 1 view .LVU4
  72              		.loc 1 43 42 is_stmt 0 view .LVU5
  73 0018 1FA8     		add	r0, sp, #124
  74 001a FFF7FEFF 		bl	rcutils_get_zero_initialized_allocator
  75              	.LVL3:
  44:../RMS-source/src/rms_freertos.c ****     freeRTOS_allocator.allocate = microros_allocate;
  76              		.loc 1 44 5 is_stmt 1 view .LVU6
  77              		.loc 1 44 33 is_stmt 0 view .LVU7
  78 001e 294B     		ldr	r3, .L8+20
  79 0020 1F93     		str	r3, [sp, #124]
  45:../RMS-source/src/rms_freertos.c ****     freeRTOS_allocator.deallocate = microros_deallocate;
  80              		.loc 1 45 5 is_stmt 1 view .LVU8
  81              		.loc 1 45 35 is_stmt 0 view .LVU9
  82 0022 294B     		ldr	r3, .L8+24
  83 0024 2093     		str	r3, [sp, #128]
  46:../RMS-source/src/rms_freertos.c ****     freeRTOS_allocator.reallocate = microros_reallocate;
  84              		.loc 1 46 5 is_stmt 1 view .LVU10
  85              		.loc 1 46 35 is_stmt 0 view .LVU11
  86 0026 294B     		ldr	r3, .L8+28
  87 0028 2193     		str	r3, [sp, #132]
  47:../RMS-source/src/rms_freertos.c ****     freeRTOS_allocator.zero_allocate =  microros_zero_allocate;
  88              		.loc 1 47 5 is_stmt 1 view .LVU12
  89              		.loc 1 47 38 is_stmt 0 view .LVU13
  90 002a 294B     		ldr	r3, .L8+32
  91 002c 2293     		str	r3, [sp, #136]
  48:../RMS-source/src/rms_freertos.c **** 
  49:../RMS-source/src/rms_freertos.c ****      if (!rcutils_set_default_allocator(&freeRTOS_allocator)) {
  92              		.loc 1 49 6 is_stmt 1 view .LVU14
  93              		.loc 1 49 11 is_stmt 0 view .LVU15
  94 002e 1FA8     		add	r0, sp, #124
  95 0030 FFF7FEFF 		bl	rcutils_set_default_allocator
  96              	.LVL4:
  97              		.loc 1 49 9 view .LVU16
  98 0034 28B3     		cbz	r0, .L6
  99              	.L2:
  50:../RMS-source/src/rms_freertos.c ****       printf("Error on default allocators (line %d)\n", __LINE__); 
  51:../RMS-source/src/rms_freertos.c ****   }
  52:../RMS-source/src/rms_freertos.c **** 
  53:../RMS-source/src/rms_freertos.c ****   // micro-ROS app
  54:../RMS-source/src/rms_freertos.c **** 
  55:../RMS-source/src/rms_freertos.c ****   rcl_publisher_t publisher;
 100              		.loc 1 55 3 is_stmt 1 view .LVU17
  56:../RMS-source/src/rms_freertos.c ****   std_msgs__msg__Int32 msg;
 101              		.loc 1 56 3 view .LVU18
  57:../RMS-source/src/rms_freertos.c ****   rclc_support_t support;
 102              		.loc 1 57 3 view .LVU19
  58:../RMS-source/src/rms_freertos.c ****   rcl_allocator_t allocator;
 103              		.loc 1 58 3 view .LVU20
ARM GAS  /tmp/ccsl9ErK.s 			page 4


  59:../RMS-source/src/rms_freertos.c ****   rcl_node_t node;
 104              		.loc 1 59 3 view .LVU21
  60:../RMS-source/src/rms_freertos.c **** 
  61:../RMS-source/src/rms_freertos.c ****   allocator = rcl_get_default_allocator();
 105              		.loc 1 61 3 view .LVU22
 106              		.loc 1 61 15 is_stmt 0 view .LVU23
 107 0036 02A8     		add	r0, sp, #8
 108 0038 FFF7FEFF 		bl	rcutils_get_default_allocator
 109              	.LVL5:
 110 003c 0DF1280E 		add	lr, sp, #40
 111 0040 0DF1080C 		add	ip, sp, #8
 112 0044 BCE80F00 		ldmia	ip!, {r0, r1, r2, r3}
 113 0048 AEE80F00 		stmia	lr!, {r0, r1, r2, r3}
 114 004c DCF80030 		ldr	r3, [ip]
 115 0050 CEF80030 		str	r3, [lr]
  62:../RMS-source/src/rms_freertos.c **** 
  63:../RMS-source/src/rms_freertos.c ****   //create init_options
  64:../RMS-source/src/rms_freertos.c ****   rclc_support_init(&support, 0, NULL, &allocator);
 116              		.loc 1 64 3 is_stmt 1 view .LVU24
 117 0054 0AAB     		add	r3, sp, #40
 118 0056 0022     		movs	r2, #0
 119 0058 1146     		mov	r1, r2
 120 005a 0FA8     		add	r0, sp, #60
 121 005c FFF7FEFF 		bl	rclc_support_init
 122              	.LVL6:
  65:../RMS-source/src/rms_freertos.c **** 
  66:../RMS-source/src/rms_freertos.c ****   // create node
  67:../RMS-source/src/rms_freertos.c ****   rclc_node_init_default(&node, "rms_node", "", &support);
 123              		.loc 1 67 3 view .LVU25
 124 0060 0FAB     		add	r3, sp, #60
 125 0062 1C4A     		ldr	r2, .L8+36
 126 0064 1C49     		ldr	r1, .L8+40
 127 0066 08A8     		add	r0, sp, #32
 128 0068 FFF7FEFF 		bl	rclc_node_init_default
 129              	.LVL7:
  68:../RMS-source/src/rms_freertos.c **** 
  69:../RMS-source/src/rms_freertos.c ****   // create publisher
  70:../RMS-source/src/rms_freertos.c ****   rclc_publisher_init_default(
 130              		.loc 1 70 3 view .LVU26
 131 006c FFF7FEFF 		bl	rosidl_typesupport_c__get_message_type_support_handle__std_msgs__msg__Int32
 132              	.LVL8:
 133 0070 0246     		mov	r2, r0
 134 0072 1A4B     		ldr	r3, .L8+44
 135 0074 08A9     		add	r1, sp, #32
 136 0076 1EA8     		add	r0, sp, #120
 137 0078 FFF7FEFF 		bl	rclc_publisher_init_default
 138              	.LVL9:
  71:../RMS-source/src/rms_freertos.c ****     &publisher,
  72:../RMS-source/src/rms_freertos.c ****     &node,
  73:../RMS-source/src/rms_freertos.c ****     ROSIDL_GET_MSG_TYPE_SUPPORT(std_msgs, msg, Int32), "numbers");
  74:../RMS-source/src/rms_freertos.c **** 
  75:../RMS-source/src/rms_freertos.c ****   msg.data = 0;
 139              		.loc 1 75 3 view .LVU27
 140              		.loc 1 75 12 is_stmt 0 view .LVU28
 141 007c 0023     		movs	r3, #0
 142 007e 1D93     		str	r3, [sp, #116]
 143 0080 0BE0     		b	.L4
ARM GAS  /tmp/ccsl9ErK.s 			page 5


 144              	.L6:
  50:../RMS-source/src/rms_freertos.c ****   }
 145              		.loc 1 50 7 is_stmt 1 view .LVU29
 146 0082 3221     		movs	r1, #50
 147 0084 1648     		ldr	r0, .L8+48
 148 0086 FFF7FEFF 		bl	printf
 149              	.LVL10:
 150 008a D4E7     		b	.L2
 151              	.LVL11:
 152              	.L7:
 153              	.LBB2:
  76:../RMS-source/src/rms_freertos.c **** 
  77:../RMS-source/src/rms_freertos.c ****   for(;;)
  78:../RMS-source/src/rms_freertos.c ****   {
  79:../RMS-source/src/rms_freertos.c ****     rcl_ret_t ret;
  80:../RMS-source/src/rms_freertos.c **** 
  81:../RMS-source/src/rms_freertos.c **** 	msg.data = val;
  82:../RMS-source/src/rms_freertos.c ****     ret = rcl_publish(&publisher, &msg, NULL);
  83:../RMS-source/src/rms_freertos.c ****     if (ret != RCL_RET_OK)
  84:../RMS-source/src/rms_freertos.c ****     {
  85:../RMS-source/src/rms_freertos.c ****       printf("Error publishing (line %d)\n", __LINE__); 
 154              		.loc 1 85 7 view .LVU30
 155 008c 5521     		movs	r1, #85
 156 008e 1548     		ldr	r0, .L8+52
 157              	.LVL12:
 158              		.loc 1 85 7 is_stmt 0 view .LVU31
 159 0090 FFF7FEFF 		bl	printf
 160              	.LVL13:
 161              	.L3:
  86:../RMS-source/src/rms_freertos.c ****     }
  87:../RMS-source/src/rms_freertos.c ****     
  88:../RMS-source/src/rms_freertos.c ****     osDelay(100);
 162              		.loc 1 88 5 is_stmt 1 view .LVU32
 163 0094 6420     		movs	r0, #100
 164 0096 FFF7FEFF 		bl	osDelay
 165              	.LVL14:
 166              	.LBE2:
  77:../RMS-source/src/rms_freertos.c ****   {
 167              		.loc 1 77 3 view .LVU33
 168              	.L4:
  77:../RMS-source/src/rms_freertos.c ****   {
 169              		.loc 1 77 3 view .LVU34
 170              	.LBB3:
  79:../RMS-source/src/rms_freertos.c **** 
 171              		.loc 1 79 5 view .LVU35
  81:../RMS-source/src/rms_freertos.c ****     ret = rcl_publish(&publisher, &msg, NULL);
 172              		.loc 1 81 2 view .LVU36
  81:../RMS-source/src/rms_freertos.c ****     ret = rcl_publish(&publisher, &msg, NULL);
 173              		.loc 1 81 11 is_stmt 0 view .LVU37
 174 009a 134B     		ldr	r3, .L8+56
 175 009c 1B68     		ldr	r3, [r3]
 176 009e 1D93     		str	r3, [sp, #116]
  82:../RMS-source/src/rms_freertos.c ****     if (ret != RCL_RET_OK)
 177              		.loc 1 82 5 is_stmt 1 view .LVU38
  82:../RMS-source/src/rms_freertos.c ****     if (ret != RCL_RET_OK)
 178              		.loc 1 82 11 is_stmt 0 view .LVU39
 179 00a0 0022     		movs	r2, #0
ARM GAS  /tmp/ccsl9ErK.s 			page 6


 180 00a2 1DA9     		add	r1, sp, #116
 181 00a4 1EA8     		add	r0, sp, #120
 182 00a6 FFF7FEFF 		bl	rcl_publish
 183              	.LVL15:
  83:../RMS-source/src/rms_freertos.c ****     {
 184              		.loc 1 83 5 is_stmt 1 view .LVU40
  83:../RMS-source/src/rms_freertos.c ****     {
 185              		.loc 1 83 8 is_stmt 0 view .LVU41
 186 00aa 0028     		cmp	r0, #0
 187 00ac EED1     		bne	.L7
 188 00ae F1E7     		b	.L3
 189              	.L9:
 190              		.align	2
 191              	.L8:
 192 00b0 00000000 		.word	cubemx_transport_read
 193 00b4 00000000 		.word	cubemx_transport_write
 194 00b8 00000000 		.word	cubemx_transport_close
 195 00bc 00000000 		.word	cubemx_transport_open
 196 00c0 00000000 		.word	huart3
 197 00c4 00000000 		.word	microros_allocate
 198 00c8 00000000 		.word	microros_deallocate
 199 00cc 00000000 		.word	microros_reallocate
 200 00d0 00000000 		.word	microros_zero_allocate
 201 00d4 28000000 		.word	.LC1
 202 00d8 2C000000 		.word	.LC2
 203 00dc 38000000 		.word	.LC3
 204 00e0 00000000 		.word	.LC0
 205 00e4 40000000 		.word	.LC4
 206 00e8 00000000 		.word	.LANCHOR0
 207              	.LBE3:
 208              		.cfi_endproc
 209              	.LFE138:
 211              		.section	.text.start_mtr_ctrl_task,"ax",%progbits
 212              		.align	1
 213              		.global	start_mtr_ctrl_task
 214              		.syntax unified
 215              		.thumb
 216              		.thumb_func
 218              	start_mtr_ctrl_task:
 219              	.LVL16:
 220              	.LFB139:
  89:../RMS-source/src/rms_freertos.c ****   }
  90:../RMS-source/src/rms_freertos.c **** }
  91:../RMS-source/src/rms_freertos.c **** 
  92:../RMS-source/src/rms_freertos.c **** void start_mtr_ctrl_task(void *argument)
  93:../RMS-source/src/rms_freertos.c **** {
 221              		.loc 1 93 1 is_stmt 1 view -0
 222              		.cfi_startproc
 223              		@ Volatile: function does not return.
 224              		@ args = 0, pretend = 0, frame = 16
 225              		@ frame_needed = 0, uses_anonymous_args = 0
 226              		.loc 1 93 1 is_stmt 0 view .LVU43
 227 0000 00B5     		push	{lr}
 228              	.LCFI2:
 229              		.cfi_def_cfa_offset 4
 230              		.cfi_offset 14, -4
 231 0002 87B0     		sub	sp, sp, #28
ARM GAS  /tmp/ccsl9ErK.s 			page 7


 232              	.LCFI3:
 233              		.cfi_def_cfa_offset 32
  94:../RMS-source/src/rms_freertos.c ****   Motor mtr1;
 234              		.loc 1 94 3 is_stmt 1 view .LVU44
  95:../RMS-source/src/rms_freertos.c **** 
  96:../RMS-source/src/rms_freertos.c ****   Motor_Init(&mtr1, TIM_CHANNEL_1, TIM_CHANNEL_2, GPIOA, MTR1_L_EN_Pin, MTR1_R_EN_Pin);
 235              		.loc 1 96 3 view .LVU45
 236 0004 4FF40073 		mov	r3, #512
 237 0008 0193     		str	r3, [sp, #4]
 238 000a 4FF48073 		mov	r3, #256
 239 000e 0093     		str	r3, [sp]
 240 0010 1E4B     		ldr	r3, .L13
 241 0012 0422     		movs	r2, #4
 242 0014 0021     		movs	r1, #0
 243 0016 02A8     		add	r0, sp, #8
 244              	.LVL17:
 245              		.loc 1 96 3 is_stmt 0 view .LVU46
 246 0018 FFF7FEFF 		bl	Motor_Init
 247              	.LVL18:
 248              	.L11:
  97:../RMS-source/src/rms_freertos.c **** 
  98:../RMS-source/src/rms_freertos.c ****   while (1)
 249              		.loc 1 98 3 is_stmt 1 discriminator 1 view .LVU47
  99:../RMS-source/src/rms_freertos.c ****   {  
 100:../RMS-source/src/rms_freertos.c ****     Motor_enable(&mtr1);
 250              		.loc 1 100 5 discriminator 1 view .LVU48
 251 001c 02A8     		add	r0, sp, #8
 252 001e FFF7FEFF 		bl	Motor_enable
 253              	.LVL19:
 101:../RMS-source/src/rms_freertos.c **** 
 102:../RMS-source/src/rms_freertos.c ****     Motor_turn_left(&mtr1, 200);
 254              		.loc 1 102 5 discriminator 1 view .LVU49
 255 0022 C821     		movs	r1, #200
 256 0024 02A8     		add	r0, sp, #8
 257 0026 FFF7FEFF 		bl	Motor_turn_left
 258              	.LVL20:
 103:../RMS-source/src/rms_freertos.c ****     osDelay(2000);
 259              		.loc 1 103 5 discriminator 1 view .LVU50
 260 002a 4FF4FA60 		mov	r0, #2000
 261 002e FFF7FEFF 		bl	osDelay
 262              	.LVL21:
 104:../RMS-source/src/rms_freertos.c **** 
 105:../RMS-source/src/rms_freertos.c ****     Motor_turn_left(&mtr1, 400);
 263              		.loc 1 105 5 discriminator 1 view .LVU51
 264 0032 4FF4C871 		mov	r1, #400
 265 0036 02A8     		add	r0, sp, #8
 266 0038 FFF7FEFF 		bl	Motor_turn_left
 267              	.LVL22:
 106:../RMS-source/src/rms_freertos.c ****     osDelay(2000);
 268              		.loc 1 106 5 discriminator 1 view .LVU52
 269 003c 4FF4FA60 		mov	r0, #2000
 270 0040 FFF7FEFF 		bl	osDelay
 271              	.LVL23:
 107:../RMS-source/src/rms_freertos.c **** 
 108:../RMS-source/src/rms_freertos.c ****     Motor_turn_left(&mtr1, 600);
 272              		.loc 1 108 5 discriminator 1 view .LVU53
 273 0044 4FF41671 		mov	r1, #600
ARM GAS  /tmp/ccsl9ErK.s 			page 8


 274 0048 02A8     		add	r0, sp, #8
 275 004a FFF7FEFF 		bl	Motor_turn_left
 276              	.LVL24:
 109:../RMS-source/src/rms_freertos.c ****     osDelay(2000);
 277              		.loc 1 109 5 discriminator 1 view .LVU54
 278 004e 4FF4FA60 		mov	r0, #2000
 279 0052 FFF7FEFF 		bl	osDelay
 280              	.LVL25:
 110:../RMS-source/src/rms_freertos.c **** 
 111:../RMS-source/src/rms_freertos.c ****     Motor_turn_left(&mtr1, 800);
 281              		.loc 1 111 5 discriminator 1 view .LVU55
 282 0056 4FF44871 		mov	r1, #800
 283 005a 02A8     		add	r0, sp, #8
 284 005c FFF7FEFF 		bl	Motor_turn_left
 285              	.LVL26:
 112:../RMS-source/src/rms_freertos.c ****     osDelay(2000);
 286              		.loc 1 112 5 discriminator 1 view .LVU56
 287 0060 4FF4FA60 		mov	r0, #2000
 288 0064 FFF7FEFF 		bl	osDelay
 289              	.LVL27:
 113:../RMS-source/src/rms_freertos.c **** 
 114:../RMS-source/src/rms_freertos.c ****     Motor_turn_left(&mtr1, 1000);
 290              		.loc 1 114 5 discriminator 1 view .LVU57
 291 0068 4FF47A71 		mov	r1, #1000
 292 006c 02A8     		add	r0, sp, #8
 293 006e FFF7FEFF 		bl	Motor_turn_left
 294              	.LVL28:
 115:../RMS-source/src/rms_freertos.c ****     osDelay(2000);
 295              		.loc 1 115 5 discriminator 1 view .LVU58
 296 0072 4FF4FA60 		mov	r0, #2000
 297 0076 FFF7FEFF 		bl	osDelay
 298              	.LVL29:
 116:../RMS-source/src/rms_freertos.c **** 
 117:../RMS-source/src/rms_freertos.c ****     Motor_disable(&mtr1);
 299              		.loc 1 117 5 discriminator 1 view .LVU59
 300 007a 02A8     		add	r0, sp, #8
 301 007c FFF7FEFF 		bl	Motor_disable
 302              	.LVL30:
 118:../RMS-source/src/rms_freertos.c ****     osDelay(2000);
 303              		.loc 1 118 5 discriminator 1 view .LVU60
 304 0080 4FF4FA60 		mov	r0, #2000
 305 0084 FFF7FEFF 		bl	osDelay
 306              	.LVL31:
  98:../RMS-source/src/rms_freertos.c ****   {  
 307              		.loc 1 98 9 discriminator 1 view .LVU61
 308 0088 C8E7     		b	.L11
 309              	.L14:
 310 008a 00BF     		.align	2
 311              	.L13:
 312 008c 00000240 		.word	1073872896
 313              		.cfi_endproc
 314              	.LFE139:
 316              		.global	val
 317              		.global	encPrev
 318              		.section	.bss.encPrev,"aw",%nobits
 319              		.align	2
 322              	encPrev:
ARM GAS  /tmp/ccsl9ErK.s 			page 9


 323 0000 00000000 		.space	4
 324              		.section	.bss.val,"aw",%nobits
 325              		.align	2
 326              		.set	.LANCHOR0,. + 0
 329              	val:
 330 0000 00000000 		.space	4
 331              		.text
 332              	.Letext0:
 333              		.file 2 "/opt/gcc-arm/lib/gcc/arm-none-eabi/11.2.1/include/stddef.h"
 334              		.file 3 "/opt/gcc-arm/arm-none-eabi/include/machine/_default_types.h"
 335              		.file 4 "/opt/gcc-arm/arm-none-eabi/include/sys/_stdint.h"
 336              		.file 5 "Middlewares/Third_Party/FreeRTOS/Source/CMSIS_RTOS_V2/cmsis_os2.h"
 337              		.file 6 "Drivers/CMSIS/Device/ST/STM32F4xx/Include/stm32f429xx.h"
 338              		.file 7 "Drivers/STM32F4xx_HAL_Driver/Inc/stm32f4xx_hal_def.h"
 339              		.file 8 "Drivers/STM32F4xx_HAL_Driver/Inc/stm32f4xx_hal_dma.h"
 340              		.file 9 "Drivers/STM32F4xx_HAL_Driver/Inc/stm32f4xx_hal_uart.h"
 341              		.file 10 "../RMS-source/inc/dh052_internal.h"
 342              		.file 11 "micro_ros_stm32cubemx_utils/microros_static_library/libmicroros/microros_include/rcutils
 343              		.file 12 "micro_ros_stm32cubemx_utils/microros_static_library/libmicroros/microros_include/rcl/all
 344              		.file 13 "micro_ros_stm32cubemx_utils/microros_static_library/libmicroros/microros_include/rmw/ret
 345              		.file 14 "micro_ros_stm32cubemx_utils/microros_static_library/libmicroros/microros_include/rcutils
 346              		.file 15 "micro_ros_stm32cubemx_utils/microros_static_library/libmicroros/microros_include/rmw/typ
 347              		.file 16 "micro_ros_stm32cubemx_utils/microros_static_library/libmicroros/microros_include/rcl/typ
 348              		.file 17 "micro_ros_stm32cubemx_utils/microros_static_library/libmicroros/microros_include/rcl/ini
 349              		.file 18 "micro_ros_stm32cubemx_utils/microros_static_library/libmicroros/microros_include/rcl/con
 350              		.file 19 "micro_ros_stm32cubemx_utils/microros_static_library/libmicroros/microros_include/rcl/nod
 351              		.file 20 "micro_ros_stm32cubemx_utils/microros_static_library/libmicroros/microros_include/rosidl_
 352              		.file 21 "micro_ros_stm32cubemx_utils/microros_static_library/libmicroros/microros_include/rcl/pub
 353              		.file 22 "micro_ros_stm32cubemx_utils/microros_static_library/libmicroros/microros_include/rcl/tim
 354              		.file 23 "micro_ros_stm32cubemx_utils/microros_static_library/libmicroros/microros_include/rmw/qos
 355              		.file 24 "micro_ros_stm32cubemx_utils/microros_static_library/libmicroros/microros_include/rclc/ty
 356              		.file 25 "micro_ros_stm32cubemx_utils/microros_static_library/libmicroros/microros_include/uxr/cli
 357              		.file 26 "micro_ros_stm32cubemx_utils/microros_static_library/libmicroros/microros_include/uxr/cli
 358              		.file 27 "micro_ros_stm32cubemx_utils/microros_static_library/libmicroros/microros_include/uxr/cli
 359              		.file 28 "micro_ros_stm32cubemx_utils/microros_static_library/libmicroros/microros_include/std_msg
 360              		.file 29 "Core/Inc/usart.h"
 361              		.file 30 "micro_ros_stm32cubemx_utils/microros_static_library/libmicroros/microros_include/rclc/pu
 362              		.file 31 "micro_ros_stm32cubemx_utils/microros_static_library/libmicroros/microros_include/std_msg
 363              		.file 32 "micro_ros_stm32cubemx_utils/microros_static_library/libmicroros/microros_include/rclc/no
 364              		.file 33 "micro_ros_stm32cubemx_utils/microros_static_library/libmicroros/microros_include/rclc/in
 365              		.file 34 "/opt/gcc-arm/arm-none-eabi/include/stdio.h"
 366              		.file 35 "micro_ros_stm32cubemx_utils/microros_static_library/libmicroros/microros_include/rmw_mic
ARM GAS  /tmp/ccsl9ErK.s 			page 10

