ARM GAS  /tmp/ccsrOWa0.s 			page 1


   1              		.cpu cortex-m4
   2              		.arch armv7e-m
   3              		.fpu fpv4-sp-d16
   4              		.eabi_attribute 27, 1
   5              		.eabi_attribute 28, 1
   6              		.eabi_attribute 20, 1
   7              		.eabi_attribute 21, 1
   8              		.eabi_attribute 23, 3
   9              		.eabi_attribute 24, 1
  10              		.eabi_attribute 25, 1
  11              		.eabi_attribute 26, 1
  12              		.eabi_attribute 30, 1
  13              		.eabi_attribute 34, 1
  14              		.eabi_attribute 18, 4
  15              		.file	"rms_freertos.c"
  16              		.text
  17              	.Ltext0:
  18              		.cfi_sections	.debug_frame
  19              		.section	.rodata.timer_callback.str1.4,"aMS",%progbits,1
  20              		.align	2
  21              	.LC0:
  22 0000 48656C6C 		.ascii	"Hello from micro-ROS #%d\000"
  22      6F206672 
  22      6F6D206D 
  22      6963726F 
  22      2D524F53 
  23              		.section	.text.timer_callback,"ax",%progbits
  24              		.align	1
  25              		.global	timer_callback
  26              		.syntax unified
  27              		.thumb
  28              		.thumb_func
  30              	timer_callback:
  31              	.LVL0:
  32              	.LFB138:
  33              		.file 1 "../RMS-source/src/rms_freertos.c"
   1:../RMS-source/src/rms_freertos.c **** #include <FreeRTOS.h>
   2:../RMS-source/src/rms_freertos.c **** #include <task.h>
   3:../RMS-source/src/rms_freertos.c **** #include <main.h>
   4:../RMS-source/src/rms_freertos.c **** #include <cmsis_os.h>
   5:../RMS-source/src/rms_freertos.c **** 
   6:../RMS-source/src/rms_freertos.c **** // Microros includes
   7:../RMS-source/src/rms_freertos.c **** #include "microros.h"
   8:../RMS-source/src/rms_freertos.c **** #include "rms-freertos.h"
   9:../RMS-source/src/rms_freertos.c **** 
  10:../RMS-source/src/rms_freertos.c **** // f429 usart include 
  11:../RMS-source/src/rms_freertos.c **** #include <usart.h>
  12:../RMS-source/src/rms_freertos.c **** 
  13:../RMS-source/src/rms_freertos.c **** // General standard c libaray includes
  14:../RMS-source/src/rms_freertos.c **** #include <stdbool.h>
  15:../RMS-source/src/rms_freertos.c **** #include <stdio.h>
  16:../RMS-source/src/rms_freertos.c **** #include <unistd.h>
  17:../RMS-source/src/rms_freertos.c **** 
  18:../RMS-source/src/rms_freertos.c **** 
  19:../RMS-source/src/rms_freertos.c **** #define BUF_SIZE 256
  20:../RMS-source/src/rms_freertos.c **** 
  21:../RMS-source/src/rms_freertos.c **** rcl_publisher_t publisher;
ARM GAS  /tmp/ccsrOWa0.s 			page 2


  22:../RMS-source/src/rms_freertos.c **** std_msgs__msg__String msg;
  23:../RMS-source/src/rms_freertos.c **** 
  24:../RMS-source/src/rms_freertos.c **** int counter = 0;
  25:../RMS-source/src/rms_freertos.c **** 
  26:../RMS-source/src/rms_freertos.c **** extern bool cubemx_transport_open(struct uxrCustomTransport * transport);
  27:../RMS-source/src/rms_freertos.c **** extern bool cubemx_transport_close(struct uxrCustomTransport * transport);
  28:../RMS-source/src/rms_freertos.c **** extern size_t cubemx_transport_write(struct uxrCustomTransport* transport, const uint8_t * buf, siz
  29:../RMS-source/src/rms_freertos.c **** extern size_t cubemx_transport_read(struct uxrCustomTransport* transport, uint8_t* buf, size_t len,
  30:../RMS-source/src/rms_freertos.c **** 
  31:../RMS-source/src/rms_freertos.c **** void * microros_allocate(size_t size, void * state);
  32:../RMS-source/src/rms_freertos.c **** extern void microros_deallocate(void * pointer, void * state);
  33:../RMS-source/src/rms_freertos.c **** void * microros_reallocate(void * pointer, size_t size, void * state);
  34:../RMS-source/src/rms_freertos.c **** void * microros_zero_allocate(size_t number_of_elements, size_t size_of_element, void * state);
  35:../RMS-source/src/rms_freertos.c **** 
  36:../RMS-source/src/rms_freertos.c **** void timer_callback(rcl_timer_t * timer, int64_t last_call_time)
  37:../RMS-source/src/rms_freertos.c **** {
  34              		.loc 1 37 1 view -0
  35              		.cfi_startproc
  36              		@ args = 0, pretend = 0, frame = 0
  37              		@ frame_needed = 0, uses_anonymous_args = 0
  38:../RMS-source/src/rms_freertos.c **** 	(void) last_call_time;
  38              		.loc 1 38 2 view .LVU1
  39:../RMS-source/src/rms_freertos.c **** 	if (timer != NULL) 
  39              		.loc 1 39 2 view .LVU2
  40              		.loc 1 39 5 is_stmt 0 view .LVU3
  41 0000 98B1     		cbz	r0, .L4
  37:../RMS-source/src/rms_freertos.c **** 	(void) last_call_time;
  42              		.loc 1 37 1 view .LVU4
  43 0002 10B5     		push	{r4, lr}
  44              	.LCFI0:
  45              		.cfi_def_cfa_offset 8
  46              		.cfi_offset 4, -8
  47              		.cfi_offset 14, -4
  40:../RMS-source/src/rms_freertos.c ****     {
  41:../RMS-source/src/rms_freertos.c ****         sprintf(msg.data.data, "Hello from micro-ROS #%d", counter++);
  48              		.loc 1 41 9 is_stmt 1 view .LVU5
  49 0004 094C     		ldr	r4, .L7
  50 0006 0A4B     		ldr	r3, .L7+4
  51 0008 1A68     		ldr	r2, [r3]
  52              	.LVL1:
  53              		.loc 1 41 9 is_stmt 0 view .LVU6
  54 000a 511C     		adds	r1, r2, #1
  55 000c 1960     		str	r1, [r3]
  56 000e 0949     		ldr	r1, .L7+8
  57 0010 2068     		ldr	r0, [r4]
  58              	.LVL2:
  59              		.loc 1 41 9 view .LVU7
  60 0012 FFF7FEFF 		bl	sprintf
  61              	.LVL3:
  42:../RMS-source/src/rms_freertos.c **** 		msg.data.size = strlen(msg.data.data);
  62              		.loc 1 42 3 is_stmt 1 view .LVU8
  63              		.loc 1 42 19 is_stmt 0 view .LVU9
  64 0016 2068     		ldr	r0, [r4]
  65 0018 FFF7FEFF 		bl	strlen
  66              	.LVL4:
  67              		.loc 1 42 17 view .LVU10
  68 001c 6060     		str	r0, [r4, #4]
ARM GAS  /tmp/ccsrOWa0.s 			page 3


  43:../RMS-source/src/rms_freertos.c **** 		rcl_publish(&publisher, &msg, NULL);
  69              		.loc 1 43 3 is_stmt 1 view .LVU11
  70 001e 0022     		movs	r2, #0
  71 0020 2146     		mov	r1, r4
  72 0022 0548     		ldr	r0, .L7+12
  73 0024 FFF7FEFF 		bl	rcl_publish
  74              	.LVL5:
  44:../RMS-source/src/rms_freertos.c **** 	}
  45:../RMS-source/src/rms_freertos.c **** }
  75              		.loc 1 45 1 is_stmt 0 view .LVU12
  76 0028 10BD     		pop	{r4, pc}
  77              	.LVL6:
  78              	.L4:
  79              	.LCFI1:
  80              		.cfi_def_cfa_offset 0
  81              		.cfi_restore 4
  82              		.cfi_restore 14
  83              		.loc 1 45 1 view .LVU13
  84 002a 7047     		bx	lr
  85              	.L8:
  86              		.align	2
  87              	.L7:
  88 002c 00000000 		.word	.LANCHOR0
  89 0030 00000000 		.word	.LANCHOR1
  90 0034 00000000 		.word	.LC0
  91 0038 00000000 		.word	.LANCHOR2
  92              		.cfi_endproc
  93              	.LFE138:
  95              		.section	.rodata.MicroRosFunc.str1.4,"aMS",%progbits,1
  96              		.align	2
  97              	.LC1:
  98 0000 4572726F 		.ascii	"Error on default allocators (line %d)\012\000"
  98      72206F6E 
  98      20646566 
  98      61756C74 
  98      20616C6C 
  99 0027 00       		.align	2
 100              	.LC2:
 101 0028 00       		.ascii	"\000"
 102 0029 000000   		.align	2
 103              	.LC3:
 104 002c 74657374 		.ascii	"test_node\000"
 104      5F6E6F64 
 104      6500
 105 0036 0000     		.align	2
 106              	.LC4:
 107 0038 2F626174 		.ascii	"/batStats_publisher\000"
 107      53746174 
 107      735F7075 
 107      626C6973 
 107      68657200 
 108              		.section	.text.MicroRosFunc,"ax",%progbits
 109              		.align	1
 110              		.global	MicroRosFunc
 111              		.syntax unified
 112              		.thumb
 113              		.thumb_func
ARM GAS  /tmp/ccsrOWa0.s 			page 4


 115              	MicroRosFunc:
 116              	.LFB139:
  46:../RMS-source/src/rms_freertos.c **** 
  47:../RMS-source/src/rms_freertos.c **** void MicroRosFunc()
  48:../RMS-source/src/rms_freertos.c **** {
 117              		.loc 1 48 1 is_stmt 1 view -0
 118              		.cfi_startproc
 119              		@ args = 0, pretend = 0, frame = 240
 120              		@ frame_needed = 0, uses_anonymous_args = 0
 121 0000 30B5     		push	{r4, r5, lr}
 122              	.LCFI2:
 123              		.cfi_def_cfa_offset 12
 124              		.cfi_offset 4, -12
 125              		.cfi_offset 5, -8
 126              		.cfi_offset 14, -4
 127 0002 BFB0     		sub	sp, sp, #252
 128              	.LCFI3:
 129              		.cfi_def_cfa_offset 264
  49:../RMS-source/src/rms_freertos.c ****     rmw_uros_set_custom_transport(
 130              		.loc 1 49 5 view .LVU15
 131 0004 364B     		ldr	r3, .L13+8
 132 0006 0193     		str	r3, [sp, #4]
 133 0008 364B     		ldr	r3, .L13+12
 134 000a 0093     		str	r3, [sp]
 135 000c 364B     		ldr	r3, .L13+16
 136 000e 374A     		ldr	r2, .L13+20
 137 0010 3749     		ldr	r1, .L13+24
 138 0012 0120     		movs	r0, #1
 139 0014 FFF7FEFF 		bl	rmw_uros_set_custom_transport
 140              	.LVL7:
  50:../RMS-source/src/rms_freertos.c ****     true,
  51:../RMS-source/src/rms_freertos.c ****     (void *) &huart3,
  52:../RMS-source/src/rms_freertos.c ****     cubemx_transport_open,
  53:../RMS-source/src/rms_freertos.c ****     cubemx_transport_close,
  54:../RMS-source/src/rms_freertos.c ****     cubemx_transport_write,
  55:../RMS-source/src/rms_freertos.c ****     cubemx_transport_read);
  56:../RMS-source/src/rms_freertos.c **** 
  57:../RMS-source/src/rms_freertos.c ****   rcl_allocator_t freeRTOS_allocator = rcutils_get_zero_initialized_allocator();
 141              		.loc 1 57 3 view .LVU16
 142              		.loc 1 57 40 is_stmt 0 view .LVU17
 143 0018 39A8     		add	r0, sp, #228
 144 001a FFF7FEFF 		bl	rcutils_get_zero_initialized_allocator
 145              	.LVL8:
  58:../RMS-source/src/rms_freertos.c ****   freeRTOS_allocator.allocate = microros_allocate;
 146              		.loc 1 58 3 is_stmt 1 view .LVU18
 147              		.loc 1 58 31 is_stmt 0 view .LVU19
 148 001e 354B     		ldr	r3, .L13+28
 149 0020 3993     		str	r3, [sp, #228]
  59:../RMS-source/src/rms_freertos.c ****   freeRTOS_allocator.deallocate = microros_deallocate;
 150              		.loc 1 59 3 is_stmt 1 view .LVU20
 151              		.loc 1 59 33 is_stmt 0 view .LVU21
 152 0022 354B     		ldr	r3, .L13+32
 153 0024 3A93     		str	r3, [sp, #232]
  60:../RMS-source/src/rms_freertos.c ****   freeRTOS_allocator.reallocate = microros_reallocate;
 154              		.loc 1 60 3 is_stmt 1 view .LVU22
 155              		.loc 1 60 33 is_stmt 0 view .LVU23
 156 0026 354B     		ldr	r3, .L13+36
ARM GAS  /tmp/ccsrOWa0.s 			page 5


 157 0028 3B93     		str	r3, [sp, #236]
  61:../RMS-source/src/rms_freertos.c ****   freeRTOS_allocator.zero_allocate =  microros_zero_allocate;
 158              		.loc 1 61 3 is_stmt 1 view .LVU24
 159              		.loc 1 61 36 is_stmt 0 view .LVU25
 160 002a 354B     		ldr	r3, .L13+40
 161 002c 3C93     		str	r3, [sp, #240]
  62:../RMS-source/src/rms_freertos.c **** 
  63:../RMS-source/src/rms_freertos.c ****   if (!rcutils_set_default_allocator(&freeRTOS_allocator)) 
 162              		.loc 1 63 3 is_stmt 1 view .LVU26
 163              		.loc 1 63 8 is_stmt 0 view .LVU27
 164 002e 39A8     		add	r0, sp, #228
 165 0030 FFF7FEFF 		bl	rcutils_set_default_allocator
 166              	.LVL9:
 167              		.loc 1 63 6 view .LVU28
 168 0034 0028     		cmp	r0, #0
 169 0036 47D0     		beq	.L12
 170              	.L10:
  64:../RMS-source/src/rms_freertos.c ****   {
  65:../RMS-source/src/rms_freertos.c ****       printf("Error on default allocators (line %d)\n", __LINE__); 
  66:../RMS-source/src/rms_freertos.c ****   }
  67:../RMS-source/src/rms_freertos.c ****   
  68:../RMS-source/src/rms_freertos.c ****   // Node main loop //
  69:../RMS-source/src/rms_freertos.c **** 
  70:../RMS-source/src/rms_freertos.c ****   rcl_allocator_t allocator = rcl_get_default_allocator();
 171              		.loc 1 70 3 is_stmt 1 view .LVU29
 172              		.loc 1 70 31 is_stmt 0 view .LVU30
 173 0038 34A8     		add	r0, sp, #208
 174 003a FFF7FEFF 		bl	rcutils_get_default_allocator
 175              	.LVL10:
  71:../RMS-source/src/rms_freertos.c ****   rclc_support_t support;
 176              		.loc 1 71 3 is_stmt 1 view .LVU31
  72:../RMS-source/src/rms_freertos.c **** 
  73:../RMS-source/src/rms_freertos.c ****   //Create init_options
  74:../RMS-source/src/rms_freertos.c ****   rclc_support_init(&support, 0, NULL, &allocator);
 177              		.loc 1 74 3 view .LVU32
 178 003e 34AB     		add	r3, sp, #208
 179 0040 0022     		movs	r2, #0
 180 0042 1146     		mov	r1, r2
 181 0044 26A8     		add	r0, sp, #152
 182 0046 FFF7FEFF 		bl	rclc_support_init
 183              	.LVL11:
  75:../RMS-source/src/rms_freertos.c **** 
  76:../RMS-source/src/rms_freertos.c ****   // Create node
  77:../RMS-source/src/rms_freertos.c ****   rcl_node_t node;
 184              		.loc 1 77 3 view .LVU33
  78:../RMS-source/src/rms_freertos.c ****   rclc_node_init_default(&node, "test_node", "", &support);
 185              		.loc 1 78 3 view .LVU34
 186 004a 26AB     		add	r3, sp, #152
 187 004c 2D4A     		ldr	r2, .L13+44
 188 004e 2E49     		ldr	r1, .L13+48
 189 0050 24A8     		add	r0, sp, #144
 190 0052 FFF7FEFF 		bl	rclc_node_init_default
 191              	.LVL12:
  79:../RMS-source/src/rms_freertos.c **** 
  80:../RMS-source/src/rms_freertos.c ****   // Create publisher
  81:../RMS-source/src/rms_freertos.c ****   rclc_publisher_init_default(&publisher, &node, ROSIDL_GET_MSG_TYPE_SUPPORT(std_msgs, msg, String)
 192              		.loc 1 81 3 view .LVU35
ARM GAS  /tmp/ccsrOWa0.s 			page 6


 193 0056 FFF7FEFF 		bl	rosidl_typesupport_c__get_message_type_support_handle__std_msgs__msg__String
 194              	.LVL13:
 195 005a 0246     		mov	r2, r0
 196 005c 2B4D     		ldr	r5, .L13+52
 197 005e 2C4B     		ldr	r3, .L13+56
 198 0060 24A9     		add	r1, sp, #144
 199 0062 2846     		mov	r0, r5
 200 0064 FFF7FEFF 		bl	rclc_publisher_init_default
 201              	.LVL14:
  82:../RMS-source/src/rms_freertos.c **** 
  83:../RMS-source/src/rms_freertos.c ****   // Create timer
  84:../RMS-source/src/rms_freertos.c **** 	rcl_timer_t timer;
 202              		.loc 1 84 2 view .LVU36
  85:../RMS-source/src/rms_freertos.c **** 	const unsigned int timer_timeout = 1000;
 203              		.loc 1 85 2 view .LVU37
  86:../RMS-source/src/rms_freertos.c **** 	rclc_timer_init_default( &timer, &support, RCL_MS_TO_NS(timer_timeout), timer_callback);
 204              		.loc 1 86 2 view .LVU38
 205 0068 2A4B     		ldr	r3, .L13+60
 206 006a 0093     		str	r3, [sp]
 207 006c 1AA3     		adr	r3, .L13
 208 006e D3E90023 		ldrd	r2, [r3]
 209 0072 26A9     		add	r1, sp, #152
 210 0074 23A8     		add	r0, sp, #140
 211 0076 FFF7FEFF 		bl	rclc_timer_init_default
 212              	.LVL15:
  87:../RMS-source/src/rms_freertos.c **** 
  88:../RMS-source/src/rms_freertos.c ****   // Create executor
  89:../RMS-source/src/rms_freertos.c **** 	rclc_executor_t executor = rclc_executor_get_zero_initialized_executor();
 213              		.loc 1 89 2 view .LVU39
 214              		.loc 1 89 29 is_stmt 0 view .LVU40
 215 007a 02A8     		add	r0, sp, #8
 216 007c FFF7FEFF 		bl	rclc_executor_get_zero_initialized_executor
 217              	.LVL16:
  90:../RMS-source/src/rms_freertos.c **** 	rclc_executor_init(&executor, &support.context, 1, &allocator);
 218              		.loc 1 90 2 is_stmt 1 view .LVU41
 219 0080 34AB     		add	r3, sp, #208
 220 0082 0122     		movs	r2, #1
 221 0084 27A9     		add	r1, sp, #156
 222 0086 02A8     		add	r0, sp, #8
 223 0088 FFF7FEFF 		bl	rclc_executor_init
 224              	.LVL17:
  91:../RMS-source/src/rms_freertos.c ****   rclc_executor_add_timer(&executor, &timer);
 225              		.loc 1 91 3 view .LVU42
 226 008c 23A9     		add	r1, sp, #140
 227 008e 02A8     		add	r0, sp, #8
 228 0090 FFF7FEFF 		bl	rclc_executor_add_timer
 229              	.LVL18:
  92:../RMS-source/src/rms_freertos.c **** 
  93:../RMS-source/src/rms_freertos.c **** 	// Fill the array with a known sequence
  94:../RMS-source/src/rms_freertos.c **** 	msg.data.data = (char * ) malloc(BUF_SIZE * sizeof(char));
 230              		.loc 1 94 2 view .LVU43
 231              		.loc 1 94 28 is_stmt 0 view .LVU44
 232 0094 4FF48070 		mov	r0, #256
 233 0098 FFF7FEFF 		bl	malloc
 234              	.LVL19:
 235              		.loc 1 94 16 view .LVU45
 236 009c 1E4B     		ldr	r3, .L13+64
ARM GAS  /tmp/ccsrOWa0.s 			page 7


 237 009e 1860     		str	r0, [r3]
  95:../RMS-source/src/rms_freertos.c **** 	msg.data.size = 0;
 238              		.loc 1 95 2 is_stmt 1 view .LVU46
 239              		.loc 1 95 16 is_stmt 0 view .LVU47
 240 00a0 0024     		movs	r4, #0
 241 00a2 5C60     		str	r4, [r3, #4]
  96:../RMS-source/src/rms_freertos.c **** 	msg.data.capacity = BUF_SIZE;
 242              		.loc 1 96 2 is_stmt 1 view .LVU48
 243              		.loc 1 96 20 is_stmt 0 view .LVU49
 244 00a4 4FF48072 		mov	r2, #256
 245 00a8 9A60     		str	r2, [r3, #8]
  97:../RMS-source/src/rms_freertos.c **** 
  98:../RMS-source/src/rms_freertos.c **** 	rclc_executor_spin(&executor);
 246              		.loc 1 98 2 is_stmt 1 view .LVU50
 247 00aa 02A8     		add	r0, sp, #8
 248 00ac FFF7FEFF 		bl	rclc_executor_spin
 249              	.LVL20:
  99:../RMS-source/src/rms_freertos.c **** 
 100:../RMS-source/src/rms_freertos.c ****   // Distroying node
 101:../RMS-source/src/rms_freertos.c **** 	rcl_publisher_fini(&publisher, &node);
 250              		.loc 1 101 2 view .LVU51
 251 00b0 24A9     		add	r1, sp, #144
 252 00b2 2846     		mov	r0, r5
 253 00b4 FFF7FEFF 		bl	rcl_publisher_fini
 254              	.LVL21:
 102:../RMS-source/src/rms_freertos.c ****   rcl_node_fini(&node);
 255              		.loc 1 102 3 view .LVU52
 256 00b8 24A8     		add	r0, sp, #144
 257 00ba FFF7FEFF 		bl	rcl_node_fini
 258              	.LVL22:
 103:../RMS-source/src/rms_freertos.c **** 
 104:../RMS-source/src/rms_freertos.c **** 
 105:../RMS-source/src/rms_freertos.c ****   // Just in case the thread ends abruptly, this function makes sure the thread exits safely
 106:../RMS-source/src/rms_freertos.c ****   osThreadTerminate(NULL);
 259              		.loc 1 106 3 view .LVU53
 260 00be 2046     		mov	r0, r4
 261 00c0 FFF7FEFF 		bl	osThreadTerminate
 262              	.LVL23:
 107:../RMS-source/src/rms_freertos.c **** }...
 263              		.loc 1 107 1 is_stmt 0 view .LVU54
 264 00c4 3FB0     		add	sp, sp, #252
 265              	.LCFI4:
 266              		.cfi_remember_state
 267              		.cfi_def_cfa_offset 12
 268              		@ sp needed
 269 00c6 30BD     		pop	{r4, r5, pc}
 270              	.LVL24:
 271              	.L12:
 272              	.LCFI5:
 273              		.cfi_restore_state
  65:../RMS-source/src/rms_freertos.c ****       printf("Error on default allocators (line %d)\n", __LINE__); 
 274              		.loc 1 65 7 is_stmt 1 view .LVU55
 275 00c8 4121     		movs	r1, #65
 276 00ca 1448     		ldr	r0, .L13+68
 277 00cc FFF7FEFF 		bl	printf
 278              	.LVL25:
 279 00d0 B2E7     		b	.L10
ARM GAS  /tmp/ccsrOWa0.s 			page 8


 280              	.L14:
 281 00d2 00BFAFF3 		.align	3
 281      0080
 282              	.L13:
 283 00d8 00CA9A3B 		.word	1000000000
 284 00dc 00000000 		.word	0
 285 00e0 00000000 		.word	cubemx_transport_read
 286 00e4 00000000 		.word	cubemx_transport_write
 287 00e8 00000000 		.word	cubemx_transport_close
 288 00ec 00000000 		.word	cubemx_transport_open
 289 00f0 00000000 		.word	huart3
 290 00f4 00000000 		.word	microros_allocate
 291 00f8 00000000 		.word	microros_deallocate
 292 00fc 00000000 		.word	microros_reallocate
 293 0100 00000000 		.word	microros_zero_allocate
 294 0104 28000000 		.word	.LC2
 295 0108 2C000000 		.word	.LC3
 296 010c 00000000 		.word	.LANCHOR2
 297 0110 38000000 		.word	.LC4
 298 0114 00000000 		.word	timer_callback
 299 0118 00000000 		.word	.LANCHOR0
 300 011c 00000000 		.word	.LC1
 301              		.cfi_endproc
 302              	.LFE139:
 304              		.global	counter
 305              		.global	msg
 306              		.global	publisher
 307              		.section	.bss.counter,"aw",%nobits
 308              		.align	2
 309              		.set	.LANCHOR1,. + 0
 312              	counter:
 313 0000 00000000 		.space	4
 314              		.section	.bss.msg,"aw",%nobits
 315              		.align	2
 316              		.set	.LANCHOR0,. + 0
 319              	msg:
 320 0000 00000000 		.space	12
 320      00000000 
 320      00000000 
 321              		.section	.bss.publisher,"aw",%nobits
 322              		.align	2
 323              		.set	.LANCHOR2,. + 0
 326              	publisher:
 327 0000 00000000 		.space	4
 328              		.text
 329              	.Letext0:
 330              		.file 2 "/opt/gcc-arm/lib/gcc/arm-none-eabi/11.2.1/include/stddef.h"
 331              		.file 3 "/opt/gcc-arm/arm-none-eabi/include/machine/_default_types.h"
 332              		.file 4 "/opt/gcc-arm/arm-none-eabi/include/sys/_stdint.h"
 333              		.file 5 "Drivers/CMSIS/Device/ST/STM32F4xx/Include/stm32f429xx.h"
 334              		.file 6 "Drivers/STM32F4xx_HAL_Driver/Inc/stm32f4xx_hal_def.h"
 335              		.file 7 "Drivers/STM32F4xx_HAL_Driver/Inc/stm32f4xx_hal_dma.h"
 336              		.file 8 "Drivers/STM32F4xx_HAL_Driver/Inc/stm32f4xx_hal_uart.h"
 337              		.file 9 "Middlewares/Third_Party/FreeRTOS/Source/CMSIS_RTOS_V2/cmsis_os2.h"
 338              		.file 10 "micro_ros_stm32cubemx_utils/microros_static_library/libmicroros/microros_include/rcutils
 339              		.file 11 "micro_ros_stm32cubemx_utils/microros_static_library/libmicroros/microros_include/rcl/all
 340              		.file 12 "micro_ros_stm32cubemx_utils/microros_static_library/libmicroros/microros_include/rmw/ret
ARM GAS  /tmp/ccsrOWa0.s 			page 9


 341              		.file 13 "micro_ros_stm32cubemx_utils/microros_static_library/libmicroros/microros_include/rcutils
 342              		.file 14 "micro_ros_stm32cubemx_utils/microros_static_library/libmicroros/microros_include/rmw/typ
 343              		.file 15 "micro_ros_stm32cubemx_utils/microros_static_library/libmicroros/microros_include/rcl/typ
 344              		.file 16 "micro_ros_stm32cubemx_utils/microros_static_library/libmicroros/microros_include/rcl/ini
 345              		.file 17 "micro_ros_stm32cubemx_utils/microros_static_library/libmicroros/microros_include/rcl/con
 346              		.file 18 "micro_ros_stm32cubemx_utils/microros_static_library/libmicroros/microros_include/rcl/nod
 347              		.file 19 "micro_ros_stm32cubemx_utils/microros_static_library/libmicroros/microros_include/rosidl_
 348              		.file 20 "micro_ros_stm32cubemx_utils/microros_static_library/libmicroros/microros_include/rcl/pub
 349              		.file 21 "micro_ros_stm32cubemx_utils/microros_static_library/libmicroros/microros_include/rcl/sub
 350              		.file 22 "micro_ros_stm32cubemx_utils/microros_static_library/libmicroros/microros_include/rcl/cli
 351              		.file 23 "micro_ros_stm32cubemx_utils/microros_static_library/libmicroros/microros_include/rcl/gua
 352              		.file 24 "micro_ros_stm32cubemx_utils/microros_static_library/libmicroros/microros_include/rcl/ser
 353              		.file 25 "micro_ros_stm32cubemx_utils/microros_static_library/libmicroros/microros_include/rcl/tim
 354              		.file 26 "micro_ros_stm32cubemx_utils/microros_static_library/libmicroros/microros_include/rmw/qos
 355              		.file 27 "micro_ros_stm32cubemx_utils/microros_static_library/libmicroros/microros_include/rcl/tim
 356              		.file 28 "micro_ros_stm32cubemx_utils/microros_static_library/libmicroros/microros_include/rcl/eve
 357              		.file 29 "micro_ros_stm32cubemx_utils/microros_static_library/libmicroros/microros_include/rcl/wai
 358              		.file 30 "micro_ros_stm32cubemx_utils/microros_static_library/libmicroros/microros_include/rclc/ty
 359              		.file 31 "micro_ros_stm32cubemx_utils/microros_static_library/libmicroros/microros_include/rclc/ex
 360              		.file 32 "micro_ros_stm32cubemx_utils/microros_static_library/libmicroros/microros_include/rclc/ex
 361              		.file 33 "micro_ros_stm32cubemx_utils/microros_static_library/libmicroros/microros_include/uxr/cli
 362              		.file 34 "micro_ros_stm32cubemx_utils/microros_static_library/libmicroros/microros_include/uxr/cli
 363              		.file 35 "micro_ros_stm32cubemx_utils/microros_static_library/libmicroros/microros_include/uxr/cli
 364              		.file 36 "micro_ros_stm32cubemx_utils/microros_static_library/libmicroros/microros_include/rosidl_
 365              		.file 37 "micro_ros_stm32cubemx_utils/microros_static_library/libmicroros/microros_include/std_msg
 366              		.file 38 "Core/Inc/usart.h"
 367              		.file 39 "/opt/gcc-arm/arm-none-eabi/include/stdlib.h"
 368              		.file 40 "micro_ros_stm32cubemx_utils/microros_static_library/libmicroros/microros_include/rclc/ti
 369              		.file 41 "micro_ros_stm32cubemx_utils/microros_static_library/libmicroros/microros_include/rclc/pu
 370              		.file 42 "micro_ros_stm32cubemx_utils/microros_static_library/libmicroros/microros_include/rclc/no
 371              		.file 43 "micro_ros_stm32cubemx_utils/microros_static_library/libmicroros/microros_include/rclc/in
 372              		.file 44 "/opt/gcc-arm/arm-none-eabi/include/stdio.h"
 373              		.file 45 "micro_ros_stm32cubemx_utils/microros_static_library/libmicroros/microros_include/std_msg
 374              		.file 46 "micro_ros_stm32cubemx_utils/microros_static_library/libmicroros/microros_include/rmw_mic
 375              		.file 47 "/opt/gcc-arm/arm-none-eabi/include/string.h"
ARM GAS  /tmp/ccsrOWa0.s 			page 10


DEFINED SYMBOLS
                            *ABS*:0000000000000000 rms_freertos.c
     /tmp/ccsrOWa0.s:20     .rodata.timer_callback.str1.4:0000000000000000 $d
     /tmp/ccsrOWa0.s:24     .text.timer_callback:0000000000000000 $t
     /tmp/ccsrOWa0.s:30     .text.timer_callback:0000000000000000 timer_callback
     /tmp/ccsrOWa0.s:88     .text.timer_callback:000000000000002c $d
     /tmp/ccsrOWa0.s:96     .rodata.MicroRosFunc.str1.4:0000000000000000 $d
     /tmp/ccsrOWa0.s:109    .text.MicroRosFunc:0000000000000000 $t
     /tmp/ccsrOWa0.s:115    .text.MicroRosFunc:0000000000000000 MicroRosFunc
     /tmp/ccsrOWa0.s:283    .text.MicroRosFunc:00000000000000d8 $d
     /tmp/ccsrOWa0.s:312    .bss.counter:0000000000000000 counter
     /tmp/ccsrOWa0.s:319    .bss.msg:0000000000000000 msg
     /tmp/ccsrOWa0.s:326    .bss.publisher:0000000000000000 publisher
     /tmp/ccsrOWa0.s:308    .bss.counter:0000000000000000 $d
     /tmp/ccsrOWa0.s:315    .bss.msg:0000000000000000 $d
     /tmp/ccsrOWa0.s:322    .bss.publisher:0000000000000000 $d

UNDEFINED SYMBOLS
sprintf
strlen
rcl_publish
rmw_uros_set_custom_transport
rcutils_get_zero_initialized_allocator
rcutils_set_default_allocator
rcutils_get_default_allocator
rclc_support_init
rclc_node_init_default
rosidl_typesupport_c__get_message_type_support_handle__std_msgs__msg__String
rclc_publisher_init_default
rclc_timer_init_default
rclc_executor_get_zero_initialized_executor
rclc_executor_init
rclc_executor_add_timer
malloc
rclc_executor_spin
rcl_publisher_fini
rcl_node_fini
osThreadTerminate
printf
cubemx_transport_read
cubemx_transport_write
cubemx_transport_close
cubemx_transport_open
huart3
microros_allocate
microros_deallocate
microros_reallocate
microros_zero_allocate
