ARM GAS  /tmp/cczdLoON.s 			page 1


   1              		.cpu cortex-m4
   2              		.arch armv7e-m
   3              		.fpu fpv4-sp-d16
   4              		.eabi_attribute 27, 1
   5              		.eabi_attribute 28, 1
   6              		.eabi_attribute 20, 1
   7              		.eabi_attribute 21, 1
   8              		.eabi_attribute 23, 3
   9              		.eabi_attribute 24, 1
  10              		.eabi_attribute 25, 1
  11              		.eabi_attribute 26, 1
  12              		.eabi_attribute 30, 1
  13              		.eabi_attribute 34, 1
  14              		.eabi_attribute 18, 4
  15              		.file	"rms_main.c"
  16              		.text
  17              	.Ltext0:
  18              		.cfi_sections	.debug_frame
  19              		.section	.text.main,"ax",%progbits
  20              		.align	1
  21              		.global	main
  22              		.syntax unified
  23              		.thumb
  24              		.thumb_func
  26              	main:
  27              	.LFB134:
  28              		.file 1 "../RMS-source/src/rms_main.c"
   1:../RMS-source/src/rms_main.c **** #include "main.h"
   2:../RMS-source/src/rms_main.c **** #include "gpio.h"
   3:../RMS-source/src/rms_main.c **** #include "cmsis_os.h"
   4:../RMS-source/src/rms_main.c **** #include "dma.h"
   5:../RMS-source/src/rms_main.c **** #include "usart.h"
   6:../RMS-source/src/rms_main.c **** #include "tim.h"
   7:../RMS-source/src/rms_main.c **** 
   8:../RMS-source/src/rms_main.c **** /***************************** Prototypes ****************************/
   9:../RMS-source/src/rms_main.c **** extern void SystemClock_Config(void);
  10:../RMS-source/src/rms_main.c **** extern void MX_FREERTOS_Init(void);
  11:../RMS-source/src/rms_main.c **** 
  12:../RMS-source/src/rms_main.c **** int main(void)
  13:../RMS-source/src/rms_main.c **** {
  29              		.loc 1 13 1 view -0
  30              		.cfi_startproc
  31              		@ args = 0, pretend = 0, frame = 0
  32              		@ frame_needed = 0, uses_anonymous_args = 0
  33 0000 10B5     		push	{r4, lr}
  34              	.LCFI0:
  35              		.cfi_def_cfa_offset 8
  36              		.cfi_offset 4, -8
  37              		.cfi_offset 14, -4
  14:../RMS-source/src/rms_main.c ****     // Reset of all peripherals, Initializes the Flash interface and the Systick
  15:../RMS-source/src/rms_main.c ****     HAL_Init();
  38              		.loc 1 15 5 view .LVU1
  39 0002 FFF7FEFF 		bl	HAL_Init
  40              	.LVL0:
  16:../RMS-source/src/rms_main.c **** 
  17:../RMS-source/src/rms_main.c ****     // Configure the system clock
  18:../RMS-source/src/rms_main.c ****     SystemClock_Config();
ARM GAS  /tmp/cczdLoON.s 			page 2


  41              		.loc 1 18 5 view .LVU2
  42 0006 FFF7FEFF 		bl	SystemClock_Config
  43              	.LVL1:
  19:../RMS-source/src/rms_main.c **** 
  20:../RMS-source/src/rms_main.c ****     // Initialize all configured peripherals
  21:../RMS-source/src/rms_main.c ****     MX_GPIO_Init();
  44              		.loc 1 21 5 view .LVU3
  45 000a FFF7FEFF 		bl	MX_GPIO_Init
  46              	.LVL2:
  22:../RMS-source/src/rms_main.c ****     MX_DMA_Init();
  47              		.loc 1 22 5 view .LVU4
  48 000e FFF7FEFF 		bl	MX_DMA_Init
  49              	.LVL3:
  23:../RMS-source/src/rms_main.c ****     MX_USART3_UART_Init();
  50              		.loc 1 23 5 view .LVU5
  51 0012 FFF7FEFF 		bl	MX_USART3_UART_Init
  52              	.LVL4:
  24:../RMS-source/src/rms_main.c ****     MX_TIM3_Init();
  53              		.loc 1 24 5 view .LVU6
  54 0016 FFF7FEFF 		bl	MX_TIM3_Init
  55              	.LVL5:
  25:../RMS-source/src/rms_main.c ****     MX_TIM8_Init();
  56              		.loc 1 25 5 view .LVU7
  57 001a FFF7FEFF 		bl	MX_TIM8_Init
  58              	.LVL6:
  26:../RMS-source/src/rms_main.c **** 
  27:../RMS-source/src/rms_main.c ****     // Start peripherals 
  28:../RMS-source/src/rms_main.c ****     HAL_TIM_Encoder_Start(&htim3, TIM_CHANNEL_ALL);
  59              		.loc 1 28 5 view .LVU8
  60 001e 3C21     		movs	r1, #60
  61 0020 0948     		ldr	r0, .L3
  62 0022 FFF7FEFF 		bl	HAL_TIM_Encoder_Start
  63              	.LVL7:
  29:../RMS-source/src/rms_main.c ****     HAL_TIM_PWM_Start(&htim8, TIM_CHANNEL_1);
  64              		.loc 1 29 5 view .LVU9
  65 0026 094C     		ldr	r4, .L3+4
  66 0028 0021     		movs	r1, #0
  67 002a 2046     		mov	r0, r4
  68 002c FFF7FEFF 		bl	HAL_TIM_PWM_Start
  69              	.LVL8:
  30:../RMS-source/src/rms_main.c ****     HAL_TIM_PWM_Start(&htim8, TIM_CHANNEL_2);
  70              		.loc 1 30 5 view .LVU10
  71 0030 0421     		movs	r1, #4
  72 0032 2046     		mov	r0, r4
  73 0034 FFF7FEFF 		bl	HAL_TIM_PWM_Start
  74              	.LVL9:
  31:../RMS-source/src/rms_main.c **** 
  32:../RMS-source/src/rms_main.c **** 
  33:../RMS-source/src/rms_main.c ****     // Call init function for freertos objects (in freertos.c)
  34:../RMS-source/src/rms_main.c ****     osKernelInitialize();  
  75              		.loc 1 34 5 view .LVU11
  76 0038 FFF7FEFF 		bl	osKernelInitialize
  77              	.LVL10:
  35:../RMS-source/src/rms_main.c ****     MX_FREERTOS_Init();
  78              		.loc 1 35 5 view .LVU12
  79 003c FFF7FEFF 		bl	MX_FREERTOS_Init
  80              	.LVL11:
ARM GAS  /tmp/cczdLoON.s 			page 3


  36:../RMS-source/src/rms_main.c **** 
  37:../RMS-source/src/rms_main.c ****     //Start scheduler
  38:../RMS-source/src/rms_main.c ****     osKernelStart();    
  81              		.loc 1 38 5 view .LVU13
  82 0040 FFF7FEFF 		bl	osKernelStart
  83              	.LVL12:
  39:../RMS-source/src/rms_main.c **** }...
  84              		.loc 1 39 1 is_stmt 0 view .LVU14
  85 0044 0020     		movs	r0, #0
  86 0046 10BD     		pop	{r4, pc}
  87              	.L4:
  88              		.align	2
  89              	.L3:
  90 0048 00000000 		.word	htim3
  91 004c 00000000 		.word	htim8
  92              		.cfi_endproc
  93              	.LFE134:
  95              		.text
  96              	.Letext0:
  97              		.file 2 "/opt/gcc-arm/arm-none-eabi/include/machine/_default_types.h"
  98              		.file 3 "/opt/gcc-arm/arm-none-eabi/include/sys/_stdint.h"
  99              		.file 4 "Drivers/CMSIS/Device/ST/STM32F4xx/Include/stm32f429xx.h"
 100              		.file 5 "Drivers/STM32F4xx_HAL_Driver/Inc/stm32f4xx_hal_def.h"
 101              		.file 6 "Drivers/STM32F4xx_HAL_Driver/Inc/stm32f4xx_hal_dma.h"
 102              		.file 7 "Drivers/STM32F4xx_HAL_Driver/Inc/stm32f4xx_hal_tim.h"
 103              		.file 8 "Middlewares/Third_Party/FreeRTOS/Source/CMSIS_RTOS_V2/cmsis_os2.h"
 104              		.file 9 "Core/Inc/tim.h"
 105              		.file 10 "Core/Inc/usart.h"
 106              		.file 11 "Core/Inc/dma.h"
 107              		.file 12 "Core/Inc/gpio.h"
 108              		.file 13 "Drivers/STM32F4xx_HAL_Driver/Inc/stm32f4xx_hal.h"
ARM GAS  /tmp/cczdLoON.s 			page 4


DEFINED SYMBOLS
                            *ABS*:0000000000000000 rms_main.c
     /tmp/cczdLoON.s:20     .text.main:0000000000000000 $t
     /tmp/cczdLoON.s:26     .text.main:0000000000000000 main
     /tmp/cczdLoON.s:90     .text.main:0000000000000048 $d

UNDEFINED SYMBOLS
HAL_Init
SystemClock_Config
MX_GPIO_Init
MX_DMA_Init
MX_USART3_UART_Init
MX_TIM3_Init
MX_TIM8_Init
HAL_TIM_Encoder_Start
HAL_TIM_PWM_Start
osKernelInitialize
MX_FREERTOS_Init
osKernelStart
htim3
htim8
